target datalayout = "e-m:e-p270:32:32-p271:32:32-p272:64:64-i64:64-i128:128-f80:128-n8:16:32:64-S128"
target triple = "x86_64-pc-linux-gnu"

%struct.x509_purpose_st = type { i32, i32, i32, ptr, ptr, ptr, ptr }

@.str.3 = private unnamed_addr constant [37 x i8] c"../openssl/test/x509_internal_test.c\00", align 1
@.str.43 = private unnamed_addr constant [2 x i8] c"1\00", align 1
@.str.86 = private unnamed_addr constant [42 x i8] c"(id = X509_PURPOSE_get_unused_id(libctx))\00", align 1
@.str.87 = private unnamed_addr constant [17 x i8] c"X509_PURPOSE_MAX\00", align 1
@.str.88 = private unnamed_addr constant [29 x i8] c"X509_PURPOSE_get_count() + 1\00", align 1
@.str.89 = private unnamed_addr constant [3 x i8] c"id\00", align 1
@.str.90 = private unnamed_addr constant [27 x i8] c"X509_PURPOSE_get_by_id(id)\00", align 1
@.str.91 = private unnamed_addr constant [3 x i8] c"-1\00", align 1
@.str.92 = private unnamed_addr constant [30 x i8] c"X509_PURPOSE_get_by_sname(SN)\00", align 1
@.str.93 = private unnamed_addr constant [8 x i8] c"SN_test\00", align 1
@.str.94 = private unnamed_addr constant [31 x i8] c"X509_PURPOSE_add(ARGS(id, SN))\00", align 1
@.str.95 = private unnamed_addr constant [8 x i8] c"LN_test\00", align 1
@.str.96 = private unnamed_addr constant [38 x i8] c"(idx = X509_PURPOSE_get_by_sname(SN))\00", align 1
@.str.97 = private unnamed_addr constant [4 x i8] c"idx\00", align 1
@.str.98 = private unnamed_addr constant [45 x i8] c"X509_PURPOSE_add(ARGS(X509_PURPOSE_MAX, SN))\00", align 1
@.str.99 = private unnamed_addr constant [2 x i8] c"0\00", align 1
@.str.100 = private unnamed_addr constant [43 x i8] c"X509_PURPOSE_add(ARGS(id, SN\22_different\22))\00", align 1
@.str.101 = private unnamed_addr constant [18 x i8] c"SN_test_different\00", align 1
@.str.102 = private unnamed_addr constant [30 x i8] c"(xp = X509_PURPOSE_get0(idx))\00", align 1
@.str.103 = private unnamed_addr constant [24 x i8] c"X509_PURPOSE_get_id(xp)\00", align 1
@.str.104 = private unnamed_addr constant [27 x i8] c"X509_PURPOSE_get0_name(xp)\00", align 1
@.str.105 = private unnamed_addr constant [3 x i8] c"LN\00", align 1
@.str.106 = private unnamed_addr constant [28 x i8] c"X509_PURPOSE_get0_sname(xp)\00", align 1
@.str.107 = private unnamed_addr constant [3 x i8] c"SN\00", align 1
@.str.108 = private unnamed_addr constant [27 x i8] c"X509_PURPOSE_get_trust(xp)\00", align 1
@.str.109 = private unnamed_addr constant [15 x i8] c"X509_TRUST_MAX\00", align 1
@.str.110 = private unnamed_addr constant [20 x i8] c"*(p = &xp->purpose)\00", align 1
@.str.111 = private unnamed_addr constant [46 x i8] c"X509_PURPOSE_set(p, X509_PURPOSE_DEFAULT_ANY)\00", align 1
@.str.112 = private unnamed_addr constant [25 x i8] c"X509_PURPOSE_DEFAULT_ANY\00", align 1

; Function Attrs: nounwind uwtable
define internal i32 @tests_X509_PURPOSE() #0 {
  %1 = alloca ptr, align 8
  %2 = alloca i32, align 4
  %3 = alloca i32, align 4
  %4 = alloca ptr, align 8
  %5 = alloca ptr, align 8
  call void @llvm.lifetime.start.p0(i64 8, ptr %1) #3
  store ptr null, ptr %1, align 8, !tbaa !27
  call void @llvm.lifetime.start.p0(i64 4, ptr %2) #3
  call void @llvm.lifetime.start.p0(i64 4, ptr %3) #3
  call void @llvm.lifetime.start.p0(i64 8, ptr %4) #3
  call void @llvm.lifetime.start.p0(i64 8, ptr %5) #3
  %6 = load ptr, ptr %1, align 8, !tbaa !27
  %7 = call i32 @X509_PURPOSE_get_unused_id(ptr noundef %6)
  store i32 %7, ptr %2, align 4, !tbaa !4
  %8 = call i32 @test_int_gt(ptr noundef @.str.3, i32 noundef 193, ptr noundef @.str.86, ptr noundef @.str.87, i32 noundef %7, i32 noundef 10)
  %9 = icmp ne i32 %8, 0
  br i1 %9, label %10, label %108

10:                                               ; preds = %0
  %11 = call i32 @X509_PURPOSE_get_count()
  %12 = add nsw i32 %11, 1
  %13 = load i32, ptr %2, align 4, !tbaa !4
  %14 = call i32 @test_int_eq(ptr noundef @.str.3, i32 noundef 194, ptr noundef @.str.88, ptr noundef @.str.89, i32 noundef %12, i32 noundef %13)
  %15 = icmp ne i32 %14, 0
  br i1 %15, label %16, label %108

16:                                               ; preds = %10
  %17 = load i32, ptr %2, align 4, !tbaa !4
  %18 = call i32 @X509_PURPOSE_get_by_id(i32 noundef %17)
  %19 = call i32 @test_int_eq(ptr noundef @.str.3, i32 noundef 195, ptr noundef @.str.90, ptr noundef @.str.91, i32 noundef %18, i32 noundef -1)
  %20 = icmp ne i32 %19, 0
  br i1 %20, label %21, label %108

21:                                               ; preds = %16
  %22 = call i32 @X509_PURPOSE_get_by_sname(ptr noundef @.str.93)
  %23 = call i32 @test_int_eq(ptr noundef @.str.3, i32 noundef 196, ptr noundef @.str.92, ptr noundef @.str.91, i32 noundef %22, i32 noundef -1)
  %24 = icmp ne i32 %23, 0
  br i1 %24, label %25, label %108

25:                                               ; preds = %21
  %26 = load i32, ptr %2, align 4, !tbaa !4
  %27 = call i32 @X509_PURPOSE_add(i32 noundef %26, i32 noundef 8, i32 noundef 0, ptr noundef @ck_purp, ptr noundef @.str.95, ptr noundef @.str.93, ptr noundef null)
  %28 = call i32 @test_int_eq(ptr noundef @.str.3, i32 noundef 199, ptr noundef @.str.94, ptr noundef @.str.43, i32 noundef %27, i32 noundef 1)
  %29 = icmp ne i32 %28, 0
  br i1 %29, label %30, label %108

30:                                               ; preds = %25
  %31 = call i32 @X509_PURPOSE_get_by_sname(ptr noundef @.str.93)
  store i32 %31, ptr %3, align 4, !tbaa !4
  %32 = call i32 @test_int_ne(ptr noundef @.str.3, i32 noundef 200, ptr noundef @.str.96, ptr noundef @.str.91, i32 noundef %31, i32 noundef -1)
  %33 = icmp ne i32 %32, 0
  br i1 %33, label %34, label %108

34:                                               ; preds = %30
  %35 = load i32, ptr %2, align 4, !tbaa !4
  %36 = call i32 @X509_PURPOSE_get_by_id(i32 noundef %35)
  %37 = load i32, ptr %3, align 4, !tbaa !4
  %38 = call i32 @test_int_eq(ptr noundef @.str.3, i32 noundef 201, ptr noundef @.str.90, ptr noundef @.str.97, i32 noundef %36, i32 noundef %37)
  %39 = icmp ne i32 %38, 0
  br i1 %39, label %40, label %108

40:                                               ; preds = %34
  %41 = load i32, ptr %2, align 4, !tbaa !4
  %42 = call i32 @X509_PURPOSE_add(i32 noundef %41, i32 noundef 8, i32 noundef 0, ptr noundef @ck_purp, ptr noundef @.str.95, ptr noundef @.str.93, ptr noundef null)
  %43 = call i32 @test_int_eq(ptr noundef @.str.3, i32 noundef 204, ptr noundef @.str.94, ptr noundef @.str.43, i32 noundef %42, i32 noundef 1)
  %44 = icmp ne i32 %43, 0
  br i1 %44, label %45, label %108

45:                                               ; preds = %40
  %46 = call i32 @X509_PURPOSE_get_by_sname(ptr noundef @.str.93)
  %47 = load i32, ptr %3, align 4, !tbaa !4
  %48 = call i32 @test_int_eq(ptr noundef @.str.3, i32 noundef 205, ptr noundef @.str.92, ptr noundef @.str.97, i32 noundef %46, i32 noundef %47)
  %49 = icmp ne i32 %48, 0
  br i1 %49, label %50, label %108

50:                                               ; preds = %45
  %51 = load i32, ptr %2, align 4, !tbaa !4
  %52 = call i32 @X509_PURPOSE_get_by_id(i32 noundef %51)
  %53 = load i32, ptr %3, align 4, !tbaa !4
  %54 = call i32 @test_int_eq(ptr noundef @.str.3, i32 noundef 206, ptr noundef @.str.90, ptr noundef @.str.97, i32 noundef %52, i32 noundef %53)
  %55 = icmp ne i32 %54, 0
  br i1 %55, label %56, label %108

56:                                               ; preds = %50
  %57 = call i32 @X509_PURPOSE_add(i32 noundef 10, i32 noundef 8, i32 noundef 0, ptr noundef @ck_purp, ptr noundef @.str.95, ptr noundef @.str.93, ptr noundef null)
  %58 = call i32 @test_int_eq(ptr noundef @.str.3, i32 noundef 209, ptr noundef @.str.98, ptr noundef @.str.99, i32 noundef %57, i32 noundef 0)
  %59 = icmp ne i32 %58, 0
  br i1 %59, label %60, label %108

60:                                               ; preds = %56
  %61 = load i32, ptr %2, align 4, !tbaa !4
  %62 = call i32 @X509_PURPOSE_add(i32 noundef %61, i32 noundef 8, i32 noundef 0, ptr noundef @ck_purp, ptr noundef @.str.95, ptr noundef @.str.101, ptr noundef null)
  %63 = call i32 @test_int_eq(ptr noundef @.str.3, i32 noundef 211, ptr noundef @.str.100, ptr noundef @.str.99, i32 noundef %62, i32 noundef 0)
  %64 = icmp ne i32 %63, 0
  br i1 %64, label %65, label %108

65:                                               ; preds = %60
  %66 = load i32, ptr %3, align 4, !tbaa !4
  %67 = call ptr @X509_PURPOSE_get0(i32 noundef %66)
  store ptr %67, ptr %5, align 8, !tbaa !29
  %68 = call i32 @test_ptr(ptr noundef @.str.3, i32 noundef 213, ptr noundef @.str.102, ptr noundef %67)
  %69 = icmp ne i32 %68, 0
  br i1 %69, label %70, label %108

70:                                               ; preds = %65
  %71 = load ptr, ptr %5, align 8, !tbaa !29
  %72 = call i32 @X509_PURPOSE_get_id(ptr noundef %71)
  %73 = load i32, ptr %2, align 4, !tbaa !4
  %74 = call i32 @test_int_eq(ptr noundef @.str.3, i32 noundef 214, ptr noundef @.str.103, ptr noundef @.str.89, i32 noundef %72, i32 noundef %73)
  %75 = icmp ne i32 %74, 0
  br i1 %75, label %76, label %108

76:                                               ; preds = %70
  %77 = load ptr, ptr %5, align 8, !tbaa !29
  %78 = call ptr @X509_PURPOSE_get0_name(ptr noundef %77)
  %79 = call i32 @test_str_eq(ptr noundef @.str.3, i32 noundef 215, ptr noundef @.str.104, ptr noundef @.str.105, ptr noundef %78, ptr noundef @.str.95)
  %80 = icmp ne i32 %79, 0
  br i1 %80, label %81, label %108

81:                                               ; preds = %76
  %82 = load ptr, ptr %5, align 8, !tbaa !29
  %83 = call ptr @X509_PURPOSE_get0_sname(ptr noundef %82)
  %84 = call i32 @test_str_eq(ptr noundef @.str.3, i32 noundef 216, ptr noundef @.str.106, ptr noundef @.str.107, ptr noundef %83, ptr noundef @.str.93)
  %85 = icmp ne i32 %84, 0
  br i1 %85, label %86, label %108

86:                                               ; preds = %81
  %87 = load ptr, ptr %5, align 8, !tbaa !29
  %88 = call i32 @X509_PURPOSE_get_trust(ptr noundef %87)
  %89 = call i32 @test_int_eq(ptr noundef @.str.3, i32 noundef 217, ptr noundef @.str.108, ptr noundef @.str.109, i32 noundef %88, i32 noundef 8)
  %90 = icmp ne i32 %89, 0
  br i1 %90, label %91, label %108

91:                                               ; preds = %86
  %92 = load ptr, ptr %5, align 8, !tbaa !29
  %93 = getelementptr inbounds nuw %struct.x509_purpose_st, ptr %92, i32 0, i32 0
  store ptr %93, ptr %4, align 8, !tbaa !31
  %94 = load i32, ptr %93, align 4, !tbaa !4
  %95 = load i32, ptr %2, align 4, !tbaa !4
  %96 = call i32 @test_int_eq(ptr noundef @.str.3, i32 noundef 219, ptr noundef @.str.110, ptr noundef @.str.89, i32 noundef %94, i32 noundef %95)
  %97 = icmp ne i32 %96, 0
  br i1 %97, label %98, label %108

98:                                               ; preds = %91
  %99 = load ptr, ptr %4, align 8, !tbaa !31
  %100 = call i32 @X509_PURPOSE_set(ptr noundef %99, i32 noundef 0)
  %101 = call i32 @test_int_eq(ptr noundef @.str.3, i32 noundef 220, ptr noundef @.str.111, ptr noundef @.str.43, i32 noundef %100, i32 noundef 1)
  %102 = icmp ne i32 %101, 0
  br i1 %102, label %103, label %108

103:                                              ; preds = %98
  %104 = load ptr, ptr %5, align 8, !tbaa !29
  %105 = call i32 @X509_PURPOSE_get_id(ptr noundef %104)
  %106 = call i32 @test_int_eq(ptr noundef @.str.3, i32 noundef 221, ptr noundef @.str.103, ptr noundef @.str.112, i32 noundef %105, i32 noundef 0)
  %107 = icmp ne i32 %106, 0
  br label %108

108:                                              ; preds = %103, %98, %91, %86, %81, %76, %70, %65, %60, %56, %50, %45, %40, %34, %30, %25, %21, %16, %10, %0
  %109 = phi i1 [ false, %98 ], [ false, %91 ], [ false, %86 ], [ false, %81 ], [ false, %76 ], [ false, %70 ], [ false, %65 ], [ false, %60 ], [ false, %56 ], [ false, %50 ], [ false, %45 ], [ false, %40 ], [ false, %34 ], [ false, %30 ], [ false, %25 ], [ false, %21 ], [ false, %16 ], [ false, %10 ], [ false, %0 ], [ %107, %103 ]
  %110 = zext i1 %109 to i32
  call void @llvm.lifetime.end.p0(i64 8, ptr %5) #3
  call void @llvm.lifetime.end.p0(i64 8, ptr %4) #3
  call void @llvm.lifetime.end.p0(i64 4, ptr %3) #3
  call void @llvm.lifetime.end.p0(i64 4, ptr %2) #3
  call void @llvm.lifetime.end.p0(i64 8, ptr %1) #3
  ret i32 %110
}