; Function Attrs: nounwind uwtable
define internal range(i32 0, 2) i32 @tests_X509_PURPOSE() #0 {
  %1 = tail call i32 @X509_PURPOSE_get_unused_id(ptr noundef null) #3
  %2 = tail call i32 @test_int_gt(ptr noundef nonnull @.str.3, i32 noundef 193, ptr noundef nonnull @.str.86, ptr noundef nonnull @.str.87, i32 noundef %1, i32 noundef 10) #3
  %.not = icmp eq i32 %2, 0
  br i1 %.not, label %63, label %3

3:                                                ; preds = %0
  %4 = tail call i32 @X509_PURPOSE_get_count() #3
  %5 = add nsw i32 %4, 1
  %6 = tail call i32 @test_int_eq(ptr noundef nonnull @.str.3, i32 noundef 194, ptr noundef nonnull @.str.88, ptr noundef nonnull @.str.89, i32 noundef %5, i32 noundef %1) #3
  %.not20 = icmp eq i32 %6, 0
  br i1 %.not20, label %63, label %7

7:                                                ; preds = %3
  %8 = tail call i32 @X509_PURPOSE_get_by_id(i32 noundef %1) #3
  %9 = tail call i32 @test_int_eq(ptr noundef nonnull @.str.3, i32 noundef 195, ptr noundef nonnull @.str.90, ptr noundef nonnull @.str.91, i32 noundef %8, i32 noundef -1) #3
  %.not21 = icmp eq i32 %9, 0
  br i1 %.not21, label %63, label %10

10:                                               ; preds = %7
  %11 = tail call i32 @X509_PURPOSE_get_by_sname(ptr noundef nonnull @.str.93) #3
  %12 = tail call i32 @test_int_eq(ptr noundef nonnull @.str.3, i32 noundef 196, ptr noundef nonnull @.str.92, ptr noundef nonnull @.str.91, i32 noundef %11, i32 noundef -1) #3
  %.not22 = icmp eq i32 %12, 0
  br i1 %.not22, label %63, label %13

13:                                               ; preds = %10
  %14 = tail call i32 @X509_PURPOSE_add(i32 noundef %1, i32 noundef 8, i32 noundef 0, ptr noundef nonnull @ck_purp, ptr noundef nonnull @.str.95, ptr noundef nonnull @.str.93, ptr noundef null) #3
  %15 = tail call i32 @test_int_eq(ptr noundef nonnull @.str.3, i32 noundef 199, ptr noundef nonnull @.str.94, ptr noundef nonnull @.str.43, i32 noundef %14, i32 noundef 1) #3
  %.not23 = icmp eq i32 %15, 0
  br i1 %.not23, label %63, label %16

16:                                               ; preds = %13
  %17 = tail call i32 @X509_PURPOSE_get_by_sname(ptr noundef nonnull @.str.93) #3
  %18 = tail call i32 @test_int_ne(ptr noundef nonnull @.str.3, i32 noundef 200, ptr noundef nonnull @.str.96, ptr noundef nonnull @.str.91, i32 noundef %17, i32 noundef -1) #3
  %.not24 = icmp eq i32 %18, 0
  br i1 %.not24, label %63, label %19

19:                                               ; preds = %16
  %20 = tail call i32 @X509_PURPOSE_get_by_id(i32 noundef %1) #3
  %21 = tail call i32 @test_int_eq(ptr noundef nonnull @.str.3, i32 noundef 201, ptr noundef nonnull @.str.90, ptr noundef nonnull @.str.97, i32 noundef %20, i32 noundef %17) #3
  %.not25 = icmp eq i32 %21, 0
  br i1 %.not25, label %63, label %22

22:                                               ; preds = %19
  %23 = tail call i32 @X509_PURPOSE_add(i32 noundef %1, i32 noundef 8, i32 noundef 0, ptr noundef nonnull @ck_purp, ptr noundef nonnull @.str.95, ptr noundef nonnull @.str.93, ptr noundef null) #3
  %24 = tail call i32 @test_int_eq(ptr noundef nonnull @.str.3, i32 noundef 204, ptr noundef nonnull @.str.94, ptr noundef nonnull @.str.43, i32 noundef %23, i32 noundef 1) #3
  %.not26 = icmp eq i32 %24, 0
  br i1 %.not26, label %63, label %25

25:                                               ; preds = %22
  %26 = tail call i32 @X509_PURPOSE_get_by_sname(ptr noundef nonnull @.str.93) #3
  %27 = tail call i32 @test_int_eq(ptr noundef nonnull @.str.3, i32 noundef 205, ptr noundef nonnull @.str.92, ptr noundef nonnull @.str.97, i32 noundef %26, i32 noundef %17) #3
  %.not27 = icmp eq i32 %27, 0
  br i1 %.not27, label %63, label %28

28:                                               ; preds = %25
  %29 = tail call i32 @X509_PURPOSE_get_by_id(i32 noundef %1) #3
  %30 = tail call i32 @test_int_eq(ptr noundef nonnull @.str.3, i32 noundef 206, ptr noundef nonnull @.str.90, ptr noundef nonnull @.str.97, i32 noundef %29, i32 noundef %17) #3
  %.not28 = icmp eq i32 %30, 0
  br i1 %.not28, label %63, label %31

31:                                               ; preds = %28
  %32 = tail call i32 @X509_PURPOSE_add(i32 noundef 10, i32 noundef 8, i32 noundef 0, ptr noundef nonnull @ck_purp, ptr noundef nonnull @.str.95, ptr noundef nonnull @.str.93, ptr noundef null) #3
  %33 = tail call i32 @test_int_eq(ptr noundef nonnull @.str.3, i32 noundef 209, ptr noundef nonnull @.str.98, ptr noundef nonnull @.str.99, i32 noundef %32, i32 noundef 0) #3
  %.not29 = icmp eq i32 %33, 0
  br i1 %.not29, label %63, label %34

34:                                               ; preds = %31
  %35 = tail call i32 @X509_PURPOSE_add(i32 noundef %1, i32 noundef 8, i32 noundef 0, ptr noundef nonnull @ck_purp, ptr noundef nonnull @.str.95, ptr noundef nonnull @.str.101, ptr noundef null) #3
  %36 = tail call i32 @test_int_eq(ptr noundef nonnull @.str.3, i32 noundef 211, ptr noundef nonnull @.str.100, ptr noundef nonnull @.str.99, i32 noundef %35, i32 noundef 0) #3
  %.not30 = icmp eq i32 %36, 0
  br i1 %.not30, label %63, label %37

37:                                               ; preds = %34
  %38 = tail call ptr @X509_PURPOSE_get0(i32 noundef %17) #3
  %39 = tail call i32 @test_ptr(ptr noundef nonnull @.str.3, i32 noundef 213, ptr noundef nonnull @.str.102, ptr noundef %38) #3
  %.not31 = icmp eq i32 %39, 0
  br i1 %.not31, label %63, label %40

40:                                               ; preds = %37
  %41 = tail call i32 @X509_PURPOSE_get_id(ptr noundef %38) #3
  %42 = tail call i32 @test_int_eq(ptr noundef nonnull @.str.3, i32 noundef 214, ptr noundef nonnull @.str.103, ptr noundef nonnull @.str.89, i32 noundef %41, i32 noundef %1) #3
  %.not32 = icmp eq i32 %42, 0
  br i1 %.not32, label %63, label %43

43:                                               ; preds = %40
  %44 = tail call ptr @X509_PURPOSE_get0_name(ptr noundef %38) #3
  %45 = tail call i32 @test_str_eq(ptr noundef nonnull @.str.3, i32 noundef 215, ptr noundef nonnull @.str.104, ptr noundef nonnull @.str.105, ptr noundef %44, ptr noundef nonnull @.str.95) #3
  %.not33 = icmp eq i32 %45, 0
  br i1 %.not33, label %63, label %46

46:                                               ; preds = %43
  %47 = tail call ptr @X509_PURPOSE_get0_sname(ptr noundef %38) #3
  %48 = tail call i32 @test_str_eq(ptr noundef nonnull @.str.3, i32 noundef 216, ptr noundef nonnull @.str.106, ptr noundef nonnull @.str.107, ptr noundef %47, ptr noundef nonnull @.str.93) #3
  %.not34 = icmp eq i32 %48, 0
  br i1 %.not34, label %63, label %49

49:                                               ; preds = %46
  %50 = tail call i32 @X509_PURPOSE_get_trust(ptr noundef %38) #3
  %51 = tail call i32 @test_int_eq(ptr noundef nonnull @.str.3, i32 noundef 217, ptr noundef nonnull @.str.108, ptr noundef nonnull @.str.109, i32 noundef %50, i32 noundef 8) #3
  %.not35 = icmp eq i32 %51, 0
  br i1 %.not35, label %63, label %52

52:                                               ; preds = %49
  %53 = load i32, ptr %38, align 4, !tbaa !20
  %54 = tail call i32 @test_int_eq(ptr noundef nonnull @.str.3, i32 noundef 219, ptr noundef nonnull @.str.110, ptr noundef nonnull @.str.89, i32 noundef %53, i32 noundef %1) #3
  %.not36 = icmp eq i32 %54, 0
  br i1 %.not36, label %63, label %55

55:                                               ; preds = %52
  %56 = tail call i32 @X509_PURPOSE_set(ptr noundef nonnull %38, i32 noundef 0) #3
  %57 = tail call i32 @test_int_eq(ptr noundef nonnull @.str.3, i32 noundef 220, ptr noundef nonnull @.str.111, ptr noundef nonnull @.str.43, i32 noundef %56, i32 noundef 1) #3
  %.not37 = icmp eq i32 %57, 0
  br i1 %.not37, label %63, label %58

58:                                               ; preds = %55
  %59 = tail call i32 @X509_PURPOSE_get_id(ptr noundef nonnull %38) #3
  %60 = tail call i32 @test_int_eq(ptr noundef nonnull @.str.3, i32 noundef 221, ptr noundef nonnull @.str.103, ptr noundef nonnull @.str.112, i32 noundef %59, i32 noundef 0) #3
  %61 = icmp ne i32 %60, 0
  %62 = zext i1 %61 to i32
  br label %63

63:                                               ; preds = %58, %55, %52, %49, %46, %43, %40, %37, %34, %31, %28, %25, %22, %19, %16, %13, %10, %7, %3, %0
  %64 = phi i32 [ 0, %55 ], [ 0, %52 ], [ 0, %49 ], [ 0, %46 ], [ 0, %43 ], [ 0, %40 ], [ 0, %37 ], [ 0, %34 ], [ 0, %31 ], [ 0, %28 ], [ 0, %25 ], [ 0, %22 ], [ 0, %19 ], [ 0, %16 ], [ 0, %13 ], [ 0, %10 ], [ 0, %7 ], [ 0, %3 ], [ 0, %0 ], [ %62, %58 ]
  ret i32 %64
}